; ModuleID = '9/1256.c'
source_filename = "9/1256.c"
target datalayout = "e-m:e-p270:32:32-p271:32:32-p272:64:64-i64:64-f80:128-n8:16:32:64-S128"
target triple = "x86_64-pc-linux-gnu"

%struct.old = type { [10 x i8], i32 }

@.str = private unnamed_addr constant [3 x i8] c"%d\00", align 1
@.str.1 = private unnamed_addr constant [3 x i8] c"%s\00", align 1
@.str.2 = private unnamed_addr constant [4 x i8] c"%s\0A\00", align 1

; Function Attrs: noinline nounwind uwtable
define dso_local i32 @main() #0 {
  %1 = alloca i32, align 4
  %2 = alloca [100 x %struct.old], align 16
  %3 = alloca [100 x %struct.old], align 16
  %4 = alloca [100 x %struct.old], align 16
  %5 = alloca %struct.old, align 4
  %6 = alloca i32, align 4
  %7 = alloca i32, align 4
  %8 = alloca i32, align 4
  %9 = alloca i32, align 4
  %10 = alloca i32, align 4
  %11 = alloca i32, align 4
  %12 = alloca [100 x i32], align 16
  %13 = alloca i32, align 4
  %14 = alloca i32, align 4
  store i32 0, i32* %1, align 4
  store i32 0, i32* %8, align 4
  store i32 0, i32* %9, align 4
  store i32 0, i32* %10, align 4
  store i32 0, i32* %11, align 4
  %15 = bitcast [100 x i32]* %12 to i8*
  call void @llvm.memset.p0i8.i64(i8* align 16 %15, i8 0, i64 400, i1 false)
  store i32 0, i32* %14, align 4
  %16 = call i32 (i8*, ...) @__isoc99_scanf(i8* getelementptr inbounds ([3 x i8], [3 x i8]* @.str, i64 0, i64 0), i32* %6)
  store i32 0, i32* %7, align 4
  br label %17

17:                                               ; preds = %66, %0
  %18 = load i32, i32* %7, align 4
  %19 = load i32, i32* %6, align 4
  %20 = icmp slt i32 %18, %19
  br i1 %20, label %21, label %69

21:                                               ; preds = %17
  %22 = load i32, i32* %7, align 4
  %23 = sext i32 %22 to i64
  %24 = getelementptr inbounds [100 x %struct.old], [100 x %struct.old]* %2, i64 0, i64 %23
  %25 = getelementptr inbounds %struct.old, %struct.old* %24, i32 0, i32 0
  %26 = getelementptr inbounds [10 x i8], [10 x i8]* %25, i64 0, i64 0
  %27 = call i32 (i8*, ...) @__isoc99_scanf(i8* getelementptr inbounds ([3 x i8], [3 x i8]* @.str.1, i64 0, i64 0), i8* %26)
  %28 = load i32, i32* %7, align 4
  %29 = sext i32 %28 to i64
  %30 = getelementptr inbounds [100 x %struct.old], [100 x %struct.old]* %2, i64 0, i64 %29
  %31 = getelementptr inbounds %struct.old, %struct.old* %30, i32 0, i32 1
  %32 = call i32 (i8*, ...) @__isoc99_scanf(i8* getelementptr inbounds ([3 x i8], [3 x i8]* @.str, i64 0, i64 0), i32* %31)
  %33 = load i32, i32* %7, align 4
  %34 = sext i32 %33 to i64
  %35 = getelementptr inbounds [100 x %struct.old], [100 x %struct.old]* %2, i64 0, i64 %34
  %36 = getelementptr inbounds %struct.old, %struct.old* %35, i32 0, i32 1
  %37 = load i32, i32* %36, align 4
  %38 = icmp sge i32 %37, 60
  br i1 %38, label %39, label %52

39:                                               ; preds = %21
  %40 = load i32, i32* %8, align 4
  %41 = sext i32 %40 to i64
  %42 = getelementptr inbounds [100 x %struct.old], [100 x %struct.old]* %3, i64 0, i64 %41
  %43 = load i32, i32* %7, align 4
  %44 = sext i32 %43 to i64
  %45 = getelementptr inbounds [100 x %struct.old], [100 x %struct.old]* %2, i64 0, i64 %44
  %46 = bitcast %struct.old* %42 to i8*
  %47 = bitcast %struct.old* %45 to i8*
  call void @llvm.memcpy.p0i8.p0i8.i64(i8* align 16 %46, i8* align 16 %47, i64 16, i1 false)
  %48 = load i32, i32* %8, align 4
  %49 = add nsw i32 %48, 1
  store i32 %49, i32* %8, align 4
  %50 = load i32, i32* %10, align 4
  %51 = add nsw i32 %50, 1
  store i32 %51, i32* %10, align 4
  br label %65

52:                                               ; preds = %21
  %53 = load i32, i32* %9, align 4
  %54 = sext i32 %53 to i64
  %55 = getelementptr inbounds [100 x %struct.old], [100 x %struct.old]* %4, i64 0, i64 %54
  %56 = load i32, i32* %7, align 4
  %57 = sext i32 %56 to i64
  %58 = getelementptr inbounds [100 x %struct.old], [100 x %struct.old]* %2, i64 0, i64 %57
  %59 = bitcast %struct.old* %55 to i8*
  %60 = bitcast %struct.old* %58 to i8*
  call void @llvm.memcpy.p0i8.p0i8.i64(i8* align 16 %59, i8* align 16 %60, i64 16, i1 false)
  %61 = load i32, i32* %9, align 4
  %62 = add nsw i32 %61, 1
  store i32 %62, i32* %9, align 4
  %63 = load i32, i32* %11, align 4
  %64 = add nsw i32 %63, 1
  store i32 %64, i32* %11, align 4
  br label %65

65:                                               ; preds = %52, %39
  br label %66

66:                                               ; preds = %65
  %67 = load i32, i32* %7, align 4
  %68 = add nsw i32 %67, 1
  store i32 %68, i32* %7, align 4
  br label %17

69:                                               ; preds = %17
  store i32 0, i32* %7, align 4
  br label %70

70:                                               ; preds = %114, %69
  %71 = load i32, i32* %7, align 4
  %72 = load i32, i32* %10, align 4
  %73 = icmp slt i32 %71, %72
  br i1 %73, label %74, label %117

74:                                               ; preds = %70
  store i32 0, i32* %13, align 4
  store i32 0, i32* %8, align 4
  br label %75

75:                                               ; preds = %101, %74
  %76 = load i32, i32* %8, align 4
  %77 = load i32, i32* %10, align 4
  %78 = icmp slt i32 %76, %77
  br i1 %78, label %79, label %104

79:                                               ; preds = %75
  %80 = load i32, i32* %8, align 4
  %81 = sext i32 %80 to i64
  %82 = getelementptr inbounds [100 x %struct.old], [100 x %struct.old]* %3, i64 0, i64 %81
  %83 = getelementptr inbounds %struct.old, %struct.old* %82, i32 0, i32 1
  %84 = load i32, i32* %83, align 4
  %85 = load i32, i32* %13, align 4
  %86 = icmp sgt i32 %84, %85
  br i1 %86, label %87, label %100

87:                                               ; preds = %79
  %88 = load i32, i32* %8, align 4
  %89 = sext i32 %88 to i64
  %90 = getelementptr inbounds [100 x i32], [100 x i32]* %12, i64 0, i64 %89
  %91 = load i32, i32* %90, align 4
  %92 = icmp eq i32 %91, 0
  br i1 %92, label %93, label %100

93:                                               ; preds = %87
  %94 = load i32, i32* %8, align 4
  %95 = sext i32 %94 to i64
  %96 = getelementptr inbounds [100 x %struct.old], [100 x %struct.old]* %3, i64 0, i64 %95
  %97 = getelementptr inbounds %struct.old, %struct.old* %96, i32 0, i32 1
  %98 = load i32, i32* %97, align 4
  store i32 %98, i32* %13, align 4
  %99 = load i32, i32* %8, align 4
  store i32 %99, i32* %14, align 4
  br label %100

100:                                              ; preds = %93, %87, %79
  br label %101

101:                                              ; preds = %100
  %102 = load i32, i32* %8, align 4
  %103 = add nsw i32 %102, 1
  store i32 %103, i32* %8, align 4
  br label %75

104:                                              ; preds = %75
  %105 = load i32, i32* %14, align 4
  %106 = sext i32 %105 to i64
  %107 = getelementptr inbounds [100 x %struct.old], [100 x %struct.old]* %3, i64 0, i64 %106
  %108 = getelementptr inbounds %struct.old, %struct.old* %107, i32 0, i32 0
  %109 = getelementptr inbounds [10 x i8], [10 x i8]* %108, i64 0, i64 0
  %110 = call i32 (i8*, ...) @printf(i8* getelementptr inbounds ([4 x i8], [4 x i8]* @.str.2, i64 0, i64 0), i8* %109)
  %111 = load i32, i32* %14, align 4
  %112 = sext i32 %111 to i64
  %113 = getelementptr inbounds [100 x i32], [100 x i32]* %12, i64 0, i64 %112
  store i32 1, i32* %113, align 4
  br label %114

114:                                              ; preds = %104
  %115 = load i32, i32* %7, align 4
  %116 = add nsw i32 %115, 1
  store i32 %116, i32* %7, align 4
  br label %70

117:                                              ; preds = %70
  store i32 0, i32* %7, align 4
  br label %118

118:                                              ; preds = %129, %117
  %119 = load i32, i32* %7, align 4
  %120 = load i32, i32* %11, align 4
  %121 = icmp slt i32 %119, %120
  br i1 %121, label %122, label %132

122:                                              ; preds = %118
  %123 = load i32, i32* %7, align 4
  %124 = sext i32 %123 to i64
  %125 = getelementptr inbounds [100 x %struct.old], [100 x %struct.old]* %4, i64 0, i64 %124
  %126 = getelementptr inbounds %struct.old, %struct.old* %125, i32 0, i32 0
  %127 = getelementptr inbounds [10 x i8], [10 x i8]* %126, i64 0, i64 0
  %128 = call i32 (i8*, ...) @printf(i8* getelementptr inbounds ([4 x i8], [4 x i8]* @.str.2, i64 0, i64 0), i8* %127)
  br label %129

129:                                              ; preds = %122
  %130 = load i32, i32* %7, align 4
  %131 = add nsw i32 %130, 1
  store i32 %131, i32* %7, align 4
  br label %118

132:                                              ; preds = %118
  ret i32 0
}

; Function Attrs: argmemonly nounwind willreturn
declare void @llvm.memset.p0i8.i64(i8* nocapture writeonly, i8, i64, i1 immarg) #1

declare dso_local i32 @__isoc99_scanf(i8*, ...) #2

; Function Attrs: argmemonly nounwind willreturn
declare void @llvm.memcpy.p0i8.p0i8.i64(i8* noalias nocapture writeonly, i8* noalias nocapture readonly, i64, i1 immarg) #1

declare dso_local i32 @printf(i8*, ...) #2


!llvm.module.flags = !{!0}
!llvm.ident = !{!1}

!0 = !{i32 1, !"wchar_size", i32 4}
!1 = !{!"clang version 10.0.0-4ubuntu1 "}
